; ModuleID = 'bench/hyperscan/original/Component.ll'
source_filename = "bench/hyperscan/original/Component.ll"
target datalayout = "e-m:e-p270:32:32-p271:32:32-p272:64:64-i64:64-i128:128-f80:128-n8:16:32:64-S128"
target triple = "x86_64-pc-linux-gnu"

@_ZTVN3ue29ComponentE = hidden unnamed_addr constant { [17 x ptr] } { [17 x ptr] [ptr null, ptr @_ZTIN3ue29ComponentE, ptr @_ZN3ue29ComponentD2Ev, ptr @_ZN3ue29ComponentD0Ev, ptr @__cxa_pure_virtual, ptr @__cxa_pure_virtual, ptr @__cxa_pure_virtual, ptr @__cxa_pure_virtual, ptr @__cxa_pure_virtual, ptr @__cxa_pure_virtual, ptr @_ZNK3ue29Component18vacuous_everywhereEv, ptr @_ZNK3ue29Component10repeatableEv, ptr @_ZN3ue29Component8optimiseEb, ptr @__cxa_pure_virtual, ptr @__cxa_pure_virtual, ptr @_ZNK3ue29Component24checkEmbeddedStartAnchorEb, ptr @_ZNK3ue29Component22checkEmbeddedEndAnchorEb] }, align 8
@_ZN3ue218GlushkovBuildState17POS_UNINITIALIZEDE = external local_unnamed_addr constant i32, align 4
@_ZTIN3ue29ComponentE = hidden constant { ptr, ptr } { ptr getelementptr inbounds (ptr, ptr @_ZTVN10__cxxabiv117__class_type_infoE, i64 2), ptr @_ZTSN3ue29ComponentE }, align 8
@_ZTVN10__cxxabiv117__class_type_infoE = external global [0 x ptr]
@_ZTSN3ue29ComponentE = hidden constant [17 x i8] c"N3ue29ComponentE\00", align 1

@_ZN3ue29ComponentD1Ev = hidden unnamed_addr alias void (ptr), ptr @_ZN3ue29ComponentD2Ev

; Function Attrs: mustprogress nofree norecurse nosync nounwind willreturn memory(argmem: write) uwtable
define hidden void @_ZN3ue29ComponentC2Ev(ptr noundef nonnull writeonly align 8 captures(none) dereferenceable(16) initializes((0, 16)) %0) unnamed_addr #0 align 2 {
  store ptr getelementptr inbounds nuw inrange(-16, 120) (i8, ptr @_ZTVN3ue29ComponentE, i64 16), ptr %0, align 8
  %2 = getelementptr inbounds nuw i8, ptr %0, i64 8
  %3 = load i32, ptr @_ZN3ue218GlushkovBuildState17POS_UNINITIALIZEDE, align 4
  store i32 %3, ptr %2, align 8
  %4 = getelementptr inbounds nuw i8, ptr %0, i64 12
  store i32 %3, ptr %4, align 4
  ret void
}

; Function Attrs: mustprogress nofree norecurse nosync nounwind willreturn memory(none) uwtable
define hidden void @_ZN3ue29ComponentD2Ev(ptr nonnull readnone align 8 captures(none) %0) unnamed_addr #1 align 2 {
  ret void
}

; Function Attrs: cold mustprogress noreturn nounwind memory(inaccessiblemem: write) uwtable
define hidden void @_ZN3ue29ComponentD0Ev(ptr nonnull readnone align 8 captures(none) %0) unnamed_addr #2 align 2 {
  tail call void @llvm.trap() #4
  unreachable
}

; Function Attrs: cold noreturn nounwind memory(inaccessiblemem: write)
declare void @llvm.trap() #3

; Function Attrs: mustprogress nofree norecurse nosync nounwind willreturn memory(none) uwtable
define hidden noundef zeroext i1 @_ZNK3ue29Component10repeatableEv(ptr nonnull readnone align 8 captures(none) %0) unnamed_addr #1 align 2 {
  ret i1 true
}

; Function Attrs: mustprogress nofree norecurse nosync nounwind willreturn memory(argmem: write) uwtable
define hidden void @_ZN3ue29Component15recordPosBoundsEjj(ptr noundef nonnull writeonly align 8 captures(none) dereferenceable(16) initializes((8, 16)) %0, i32 noundef %1, i32 noundef %2) local_unnamed_addr #0 align 2 {
  %4 = getelementptr inbounds nuw i8, ptr %0, i64 8
  store i32 %1, ptr %4, align 8
  %5 = getelementptr inbounds nuw i8, ptr %0, i64 12
  store i32 %2, ptr %5, align 4
  ret void
}

; Function Attrs: mustprogress nofree norecurse nosync nounwind willreturn memory(none) uwtable
define hidden void @_ZN3ue29Component8optimiseEb(ptr nonnull readnone align 8 captures(none) %0, i1 zeroext %1) unnamed_addr #1 align 2 {
  ret void
}

; Function Attrs: mustprogress nofree norecurse nosync nounwind willreturn memory(none) uwtable
define hidden noundef zeroext i1 @_ZNK3ue29Component18vacuous_everywhereEv(ptr nonnull readnone align 8 captures(none) %0) unnamed_addr #1 align 2 {
  ret i1 false
}

; Function Attrs: mustprogress nofree norecurse nosync nounwind willreturn memory(none) uwtable
define hidden noundef zeroext i1 @_ZNK3ue29Component24checkEmbeddedStartAnchorEb(ptr nonnull readnone align 8 captures(none) %0, i1 zeroext %1) unnamed_addr #1 align 2 {
  ret i1 false
}

; Function Attrs: mustprogress nofree norecurse nosync nounwind willreturn memory(none) uwtable
define hidden noundef zeroext i1 @_ZNK3ue29Component22checkEmbeddedEndAnchorEb(ptr nonnull readnone align 8 captures(none) %0, i1 zeroext %1) unnamed_addr #1 align 2 {
  ret i1 false
}

declare void @__cxa_pure_virtual() unnamed_addr


!llvm.module.flags = !{!0, !1, !2, !3, !4}

!0 = !{i32 1, !"wchar_size", i32 4}
!1 = !{i32 8, !"PIC Level", i32 2}
!2 = !{i32 7, !"PIE Level", i32 2}
!3 = !{i32 7, !"uwtable", i32 2}
!4 = !{i32 7, !"frame-pointer", i32 2}
